target datalayout = "e-m:e-p270:32:32-p271:32:32-p272:64:64-i64:64-i128:128-f80:128-n8:16:32:64-S128"
target triple = "x86_64-pc-linux-gnu"

%class.DefaultRndNumGenerator = type { %class.AbsRndNumGenerator, i64, %"class.std::__cxx11::basic_string", ptr }
%class.AbsRndNumGenerator = type { ptr }
%"class.std::__cxx11::basic_string" = type { %"struct.std::__cxx11::basic_string<char>::_Alloc_hider", i64, %union.anon }
%"struct.std::__cxx11::basic_string<char>::_Alloc_hider" = type { ptr }
%union.anon = type { i64, [8 x i8] }

; Function Attrs: mustprogress uwtable
define dso_local void @_ZN22DefaultRndNumGenerator12RandomDigitsB5cxx11Ei(ptr dead_on_unwind noalias writable sret(%"class.std::__cxx11::basic_string") align 8 %0, ptr noundef nonnull align 8 dereferenceable(56) %1, i32 noundef %2) unnamed_addr #4 align 2 personality ptr @__gxx_personality_v0 {
  %4 = alloca ptr, align 8
  %5 = alloca ptr, align 8
  %6 = alloca i32, align 4
  %7 = alloca i1, align 1
  %8 = alloca ptr, align 8
  %9 = alloca ptr, align 8
  %10 = alloca i32, align 4
  %11 = alloca i32, align 4
  store ptr %0, ptr %4, align 8
  store ptr %1, ptr %5, align 8
  store i32 %2, ptr %6, align 4
  %12 = load ptr, ptr %5, align 8
  %13 = call noundef zeroext i1 @_ZN9CGOptions9is_randomEv()
  br i1 %13, label %16, label %14

14:                                               ; preds = %3
  %15 = load i32, ptr %6, align 4
  call void @_ZN18AbsRndNumGenerator12RandomDigitsB5cxx11Ei(ptr dead_on_unwind writable sret(%"class.std::__cxx11::basic_string") align 8 %0, ptr noundef nonnull align 8 dereferenceable(8) %12, i32 noundef %15)
  br label %59

16:                                               ; preds = %3
  store i1 false, ptr %7, align 1
  call void @_ZNSt7__cxx1112basic_stringIcSt11char_traitsIcESaIcEEC1Ev(ptr noundef nonnull align 8 dereferenceable(32) %0) #3
  %17 = invoke noundef ptr @_ZN18AbsRndNumGenerator8get_dec1Ev()
          to label %18 unwind label %51

18:                                               ; preds = %16
  store ptr %17, ptr %8, align 8
  br label %19

19:                                               ; preds = %47, %18
  %20 = load i32, ptr %6, align 4
  %21 = add nsw i32 %20, -1
  store i32 %21, ptr %6, align 4
  %22 = icmp ne i32 %20, 0
  br i1 %22, label %23, label %55

23:                                               ; preds = %19
  %24 = load ptr, ptr %12, align 8
  %25 = getelementptr inbounds ptr, ptr %24, i64 10
  %26 = load ptr, ptr %25, align 8
  %27 = invoke noundef i64 %26(ptr noundef nonnull align 8 dereferenceable(56) %12)
          to label %28 unwind label %51

28:                                               ; preds = %23
  %29 = urem i64 %27, 10
  %30 = trunc i64 %29 to i32
  store i32 %30, ptr %11, align 4
  %31 = load ptr, ptr %8, align 8
  %32 = load i32, ptr %11, align 4
  %33 = sext i32 %32 to i64
  %34 = getelementptr inbounds i8, ptr %31, i64 %33
  %35 = load i8, ptr %34, align 1
  %36 = invoke noundef nonnull align 8 dereferenceable(32) ptr @_ZNSt7__cxx1112basic_stringIcSt11char_traitsIcESaIcEEpLEc(ptr noundef nonnull align 8 dereferenceable(32) %0, i8 noundef signext %35)
          to label %37 unwind label %51

37:                                               ; preds = %28
  %38 = getelementptr inbounds %class.DefaultRndNumGenerator, ptr %12, i32 0, i32 3
  %39 = load ptr, ptr %38, align 8
  %40 = load i32, ptr %11, align 4
  %41 = getelementptr inbounds %class.DefaultRndNumGenerator, ptr %12, i32 0, i32 1
  %42 = load i64, ptr %41, align 8
  %43 = trunc i64 %42 to i32
  %44 = load ptr, ptr %39, align 8
  %45 = getelementptr inbounds ptr, ptr %44, i64 4
  %46 = load ptr, ptr %45, align 8
  invoke void %46(ptr noundef nonnull align 8 dereferenceable(8) %39, i32 noundef %40, i32 noundef 10, i32 noundef %43)
          to label %47 unwind label %51

47:                                               ; preds = %37
  %48 = getelementptr inbounds %class.DefaultRndNumGenerator, ptr %12, i32 0, i32 1
  %49 = load i64, ptr %48, align 8
  %50 = add i64 %49, 1
  store i64 %50, ptr %48, align 8
  br label %19, !llvm.loop !8

51:                                               ; preds = %37, %28, %23, %16
  %52 = landingpad { ptr, i32 }
          cleanup
  %53 = extractvalue { ptr, i32 } %52, 0
  store ptr %53, ptr %9, align 8
  %54 = extractvalue { ptr, i32 } %52, 1
  store i32 %54, ptr %10, align 4
  call void @_ZNSt7__cxx1112basic_stringIcSt11char_traitsIcESaIcEED1Ev(ptr noundef nonnull align 8 dereferenceable(32) %0) #3
  br label %60

55:                                               ; preds = %19
  store i1 true, ptr %7, align 1
  %56 = load i1, ptr %7, align 1
  br i1 %56, label %58, label %57

57:                                               ; preds = %55
  call void @_ZNSt7__cxx1112basic_stringIcSt11char_traitsIcESaIcEED1Ev(ptr noundef nonnull align 8 dereferenceable(32) %0) #3
  br label %58

58:                                               ; preds = %57, %55
  br label %59

59:                                               ; preds = %58, %14
  ret void

60:                                               ; preds = %51
  %61 = load ptr, ptr %9, align 8
  %62 = load i32, ptr %10, align 4
  %63 = insertvalue { ptr, i32 } poison, ptr %61, 0
  %64 = insertvalue { ptr, i32 } %63, i32 %62, 1
  resume { ptr, i32 } %64
}