; Function Attrs: mustprogress uwtable
define dso_local void @_ZN22DefaultRndNumGenerator12RandomDigitsB5cxx11Ei(ptr dead_on_unwind noalias writable sret(%"class.std::__cxx11::basic_string") align 8 %0, ptr noundef nonnull align 8 dereferenceable(56) %1, i32 noundef %2) unnamed_addr #3 align 2 personality ptr @__gxx_personality_v0 {
  %4 = tail call noundef zeroext i1 @_ZN9CGOptions9is_randomEv()
  br i1 %4, label %6, label %5

5:                                                ; preds = %3
  tail call void @_ZN18AbsRndNumGenerator12RandomDigitsB5cxx11Ei(ptr dead_on_unwind writable sret(%"class.std::__cxx11::basic_string") align 8 %0, ptr noundef nonnull align 8 dereferenceable(8) %1, i32 noundef %2)
  br label %.loopexit

6:                                                ; preds = %3
  tail call void @_ZNSt7__cxx1112basic_stringIcSt11char_traitsIcESaIcEEC1Ev(ptr noundef nonnull align 8 dereferenceable(32) %0) #11
  %7 = invoke noundef ptr @_ZN18AbsRndNumGenerator8get_dec1Ev()
          to label %.preheader unwind label %.loopexit.split-lp

.preheader:                                       ; preds = %6
  %.not9 = icmp eq i32 %2, 0
  br i1 %.not9, label %.loopexit, label %.lr.ph

.lr.ph:                                           ; preds = %.preheader
  %8 = getelementptr inbounds i8, ptr %1, i64 48
  %9 = getelementptr inbounds i8, ptr %1, i64 8
  br label %10

10:                                               ; preds = %.lr.ph, %29
  %.in = phi i32 [ %2, %.lr.ph ], [ %11, %29 ]
  %11 = add nsw i32 %.in, -1
  %12 = load ptr, ptr %1, align 8
  %13 = getelementptr inbounds i8, ptr %12, i64 80
  %14 = load ptr, ptr %13, align 8
  %15 = invoke noundef i64 %14(ptr noundef nonnull align 8 dereferenceable(56) %1)
          to label %16 unwind label %.loopexit8

16:                                               ; preds = %10
  %17 = urem i64 %15, 10
  %18 = getelementptr inbounds i8, ptr %7, i64 %17
  %19 = load i8, ptr %18, align 1
  %20 = invoke noundef nonnull align 8 dereferenceable(32) ptr @_ZNSt7__cxx1112basic_stringIcSt11char_traitsIcESaIcEEpLEc(ptr noundef nonnull align 8 dereferenceable(32) %0, i8 noundef signext %19)
          to label %21 unwind label %.loopexit8

21:                                               ; preds = %16
  %22 = trunc i64 %17 to i32
  %23 = load ptr, ptr %8, align 8
  %24 = load i64, ptr %9, align 8
  %25 = trunc i64 %24 to i32
  %26 = load ptr, ptr %23, align 8
  %27 = getelementptr inbounds i8, ptr %26, i64 32
  %28 = load ptr, ptr %27, align 8
  invoke void %28(ptr noundef nonnull align 8 dereferenceable(8) %23, i32 noundef %22, i32 noundef 10, i32 noundef %25)
          to label %29 unwind label %.loopexit8

29:                                               ; preds = %21
  %30 = load i64, ptr %9, align 8
  %31 = add i64 %30, 1
  store i64 %31, ptr %9, align 8
  %.not = icmp eq i32 %11, 0
  br i1 %.not, label %.loopexit, label %10, !llvm.loop !8

.loopexit8:                                       ; preds = %10, %16, %21
  %lpad.loopexit = landingpad { ptr, i32 }
          cleanup
  br label %32

.loopexit.split-lp:                               ; preds = %6
  %lpad.loopexit.split-lp = landingpad { ptr, i32 }
          cleanup
  br label %32

32:                                               ; preds = %.loopexit.split-lp, %.loopexit8
  %lpad.phi = phi { ptr, i32 } [ %lpad.loopexit, %.loopexit8 ], [ %lpad.loopexit.split-lp, %.loopexit.split-lp ]
  tail call void @_ZNSt7__cxx1112basic_stringIcSt11char_traitsIcESaIcEED1Ev(ptr noundef nonnull align 8 dereferenceable(32) %0) #11
  resume { ptr, i32 } %lpad.phi

.loopexit:                                        ; preds = %29, %.preheader, %5
  ret void
}